target datalayout = "e-m:e-p270:32:32-p271:32:32-p272:64:64-i64:64-i128:128-f80:128-n8:16:32:64-S128"
target triple = "x86_64-pc-linux-gnu"

%struct.prov_cipher_ctx_st = type { [16 x i8], [16 x i8], [16 x i8], ptr, %union.anon, i32, i64, i64, i64, i64, i32, i8, i32, ptr, i32, i64, i32, i64, i32, ptr, ptr, ptr }
%union.anon = type { ptr }
%struct.ossl_param_st = type { ptr, i32, ptr, i64, i64 }

@.str.1 = private unnamed_addr constant [60 x i8] c"../openssl/providers/implementations/ciphers/ciphercommon.c\00", align 1
@.str.10 = private unnamed_addr constant [8 x i8] c"padding\00", align 1
@.str.13 = private unnamed_addr constant [4 x i8] c"num\00", align 1
@__func__.ossl_cipher_generic_set_ctx_params = private unnamed_addr constant [35 x i8] c"ossl_cipher_generic_set_ctx_params\00", align 1
@.str.15 = private unnamed_addr constant [9 x i8] c"use-bits\00", align 1
@.str.16 = private unnamed_addr constant [12 x i8] c"tls-version\00", align 1
@.str.17 = private unnamed_addr constant [13 x i8] c"tls-mac-size\00", align 1

; Function Attrs: inlinehint nounwind uwtable
define internal i32 @ossl_param_is_empty(ptr noundef %0) #3 {
  %2 = alloca ptr, align 8
  store ptr %0, ptr %2, align 8, !tbaa !7
  %3 = load ptr, ptr %2, align 8, !tbaa !7
  %4 = icmp eq ptr %3, null
  br i1 %4, label %10, label %5

5:                                                ; preds = %1
  %6 = load ptr, ptr %2, align 8, !tbaa !7
  %7 = getelementptr inbounds nuw %struct.ossl_param_st, ptr %6, i32 0, i32 0
  %8 = load ptr, ptr %7, align 8, !tbaa !20
  %9 = icmp eq ptr %8, null
  br label %10

10:                                               ; preds = %5, %1
  %11 = phi i1 [ true, %1 ], [ %9, %5 ]
  %12 = zext i1 %11 to i32
  ret i32 %12
}

; Function Attrs: nounwind uwtable
define i32 @ossl_cipher_generic_set_ctx_params(ptr noundef %0, ptr noundef %1) #0 {
  %3 = alloca i32, align 4
  %4 = alloca ptr, align 8
  %5 = alloca ptr, align 8
  %6 = alloca ptr, align 8
  %7 = alloca ptr, align 8
  %8 = alloca i32, align 4
  %9 = alloca i32, align 4
  %10 = alloca i32, align 4
  %11 = alloca i32, align 4
  store ptr %0, ptr %4, align 8, !tbaa !3
  store ptr %1, ptr %5, align 8, !tbaa !7
  call void @llvm.lifetime.start.p0(i64 8, ptr %6) #7
  %12 = load ptr, ptr %4, align 8, !tbaa !3
  store ptr %12, ptr %6, align 8, !tbaa !13
  call void @llvm.lifetime.start.p0(i64 8, ptr %7) #7
  %13 = load ptr, ptr %5, align 8, !tbaa !7
  %14 = call i32 @ossl_param_is_empty(ptr noundef %13)
  %15 = icmp ne i32 %14, 0
  br i1 %15, label %16, label %17

16:                                               ; preds = %2
  store i32 1, ptr %3, align 4
  store i32 1, ptr %8, align 4
  br label %110

17:                                               ; preds = %2
  %18 = load ptr, ptr %5, align 8, !tbaa !7
  %19 = call ptr @OSSL_PARAM_locate_const(ptr noundef %18, ptr noundef @.str.10)
  store ptr %19, ptr %7, align 8, !tbaa !7
  %20 = load ptr, ptr %7, align 8, !tbaa !7
  %21 = icmp ne ptr %20, null
  br i1 %21, label %22, label %41

22:                                               ; preds = %17
  call void @llvm.lifetime.start.p0(i64 4, ptr %9) #7
  %23 = load ptr, ptr %7, align 8, !tbaa !7
  %24 = call i32 @OSSL_PARAM_get_uint(ptr noundef %23, ptr noundef %9)
  %25 = icmp ne i32 %24, 0
  br i1 %25, label %27, label %26

26:                                               ; preds = %22
  call void @ERR_new()
  call void @ERR_set_debug(ptr noundef @.str.1, i32 noundef 660, ptr noundef @__func__.ossl_cipher_generic_set_ctx_params)
  call void (i32, i32, ptr, ...) @ERR_set_error(i32 noundef 57, i32 noundef 103, ptr noundef null)
  store i32 0, ptr %3, align 4
  store i32 1, ptr %8, align 4
  br label %38

27:                                               ; preds = %22
  %28 = load i32, ptr %9, align 4, !tbaa !9
  %29 = icmp ne i32 %28, 0
  %30 = select i1 %29, i32 1, i32 0
  %31 = load ptr, ptr %6, align 8, !tbaa !13
  %32 = getelementptr inbounds nuw %struct.prov_cipher_ctx_st, ptr %31, i32 0, i32 11
  %33 = trunc i32 %30 to i8
  %34 = load i8, ptr %32, align 4
  %35 = and i8 %33, 1
  %36 = and i8 %34, -2
  %37 = or i8 %36, %35
  store i8 %37, ptr %32, align 4
  store i32 0, ptr %8, align 4
  br label %38

38:                                               ; preds = %27, %26
  call void @llvm.lifetime.end.p0(i64 4, ptr %9) #7
  %39 = load i32, ptr %8, align 4
  switch i32 %39, label %110 [
    i32 0, label %40
  ]

40:                                               ; preds = %38
  br label %41

41:                                               ; preds = %40, %17
  %42 = load ptr, ptr %5, align 8, !tbaa !7
  %43 = call ptr @OSSL_PARAM_locate_const(ptr noundef %42, ptr noundef @.str.15)
  store ptr %43, ptr %7, align 8, !tbaa !7
  %44 = load ptr, ptr %7, align 8, !tbaa !7
  %45 = icmp ne ptr %44, null
  br i1 %45, label %46, label %66

46:                                               ; preds = %41
  call void @llvm.lifetime.start.p0(i64 4, ptr %10) #7
  %47 = load ptr, ptr %7, align 8, !tbaa !7
  %48 = call i32 @OSSL_PARAM_get_uint(ptr noundef %47, ptr noundef %10)
  %49 = icmp ne i32 %48, 0
  br i1 %49, label %51, label %50

50:                                               ; preds = %46
  call void @ERR_new()
  call void @ERR_set_debug(ptr noundef @.str.1, i32 noundef 670, ptr noundef @__func__.ossl_cipher_generic_set_ctx_params)
  call void (i32, i32, ptr, ...) @ERR_set_error(i32 noundef 57, i32 noundef 103, ptr noundef null)
  store i32 0, ptr %3, align 4
  store i32 1, ptr %8, align 4
  br label %63

51:                                               ; preds = %46
  %52 = load i32, ptr %10, align 4, !tbaa !9
  %53 = icmp ne i32 %52, 0
  %54 = select i1 %53, i32 1, i32 0
  %55 = load ptr, ptr %6, align 8, !tbaa !13
  %56 = getelementptr inbounds nuw %struct.prov_cipher_ctx_st, ptr %55, i32 0, i32 11
  %57 = trunc i32 %54 to i8
  %58 = load i8, ptr %56, align 4
  %59 = and i8 %57, 1
  %60 = shl i8 %59, 7
  %61 = and i8 %58, 127
  %62 = or i8 %61, %60
  store i8 %62, ptr %56, align 4
  store i32 0, ptr %8, align 4
  br label %63

63:                                               ; preds = %51, %50
  call void @llvm.lifetime.end.p0(i64 4, ptr %10) #7
  %64 = load i32, ptr %8, align 4
  switch i32 %64, label %110 [
    i32 0, label %65
  ]

65:                                               ; preds = %63
  br label %66

66:                                               ; preds = %65, %41
  %67 = load ptr, ptr %5, align 8, !tbaa !7
  %68 = call ptr @OSSL_PARAM_locate_const(ptr noundef %67, ptr noundef @.str.16)
  store ptr %68, ptr %7, align 8, !tbaa !7
  %69 = load ptr, ptr %7, align 8, !tbaa !7
  %70 = icmp ne ptr %69, null
  br i1 %70, label %71, label %79

71:                                               ; preds = %66
  %72 = load ptr, ptr %7, align 8, !tbaa !7
  %73 = load ptr, ptr %6, align 8, !tbaa !13
  %74 = getelementptr inbounds nuw %struct.prov_cipher_ctx_st, ptr %73, i32 0, i32 12
  %75 = call i32 @OSSL_PARAM_get_uint(ptr noundef %72, ptr noundef %74)
  %76 = icmp ne i32 %75, 0
  br i1 %76, label %78, label %77

77:                                               ; preds = %71
  call void @ERR_new()
  call void @ERR_set_debug(ptr noundef @.str.1, i32 noundef 678, ptr noundef @__func__.ossl_cipher_generic_set_ctx_params)
  call void (i32, i32, ptr, ...) @ERR_set_error(i32 noundef 57, i32 noundef 103, ptr noundef null)
  store i32 0, ptr %3, align 4
  store i32 1, ptr %8, align 4
  br label %110

78:                                               ; preds = %71
  br label %79

79:                                               ; preds = %78, %66
  %80 = load ptr, ptr %5, align 8, !tbaa !7
  %81 = call ptr @OSSL_PARAM_locate_const(ptr noundef %80, ptr noundef @.str.17)
  store ptr %81, ptr %7, align 8, !tbaa !7
  %82 = load ptr, ptr %7, align 8, !tbaa !7
  %83 = icmp ne ptr %82, null
  br i1 %83, label %84, label %92

84:                                               ; preds = %79
  %85 = load ptr, ptr %7, align 8, !tbaa !7
  %86 = load ptr, ptr %6, align 8, !tbaa !13
  %87 = getelementptr inbounds nuw %struct.prov_cipher_ctx_st, ptr %86, i32 0, i32 15
  %88 = call i32 @OSSL_PARAM_get_size_t(ptr noundef %85, ptr noundef %87)
  %89 = icmp ne i32 %88, 0
  br i1 %89, label %91, label %90

90:                                               ; preds = %84
  call void @ERR_new()
  call void @ERR_set_debug(ptr noundef @.str.1, i32 noundef 685, ptr noundef @__func__.ossl_cipher_generic_set_ctx_params)
  call void (i32, i32, ptr, ...) @ERR_set_error(i32 noundef 57, i32 noundef 103, ptr noundef null)
  store i32 0, ptr %3, align 4
  store i32 1, ptr %8, align 4
  br label %110

91:                                               ; preds = %84
  br label %92

92:                                               ; preds = %91, %79
  %93 = load ptr, ptr %5, align 8, !tbaa !7
  %94 = call ptr @OSSL_PARAM_locate_const(ptr noundef %93, ptr noundef @.str.13)
  store ptr %94, ptr %7, align 8, !tbaa !7
  %95 = load ptr, ptr %7, align 8, !tbaa !7
  %96 = icmp ne ptr %95, null
  br i1 %96, label %97, label %109

97:                                               ; preds = %92
  call void @llvm.lifetime.start.p0(i64 4, ptr %11) #7
  %98 = load ptr, ptr %7, align 8, !tbaa !7
  %99 = call i32 @OSSL_PARAM_get_uint(ptr noundef %98, ptr noundef %11)
  %100 = icmp ne i32 %99, 0
  br i1 %100, label %102, label %101

101:                                              ; preds = %97
  call void @ERR_new()
  call void @ERR_set_debug(ptr noundef @.str.1, i32 noundef 694, ptr noundef @__func__.ossl_cipher_generic_set_ctx_params)
  call void (i32, i32, ptr, ...) @ERR_set_error(i32 noundef 57, i32 noundef 103, ptr noundef null)
  store i32 0, ptr %3, align 4
  store i32 1, ptr %8, align 4
  br label %106

102:                                              ; preds = %97
  %103 = load i32, ptr %11, align 4, !tbaa !9
  %104 = load ptr, ptr %6, align 8, !tbaa !13
  %105 = getelementptr inbounds nuw %struct.prov_cipher_ctx_st, ptr %104, i32 0, i32 18
  store i32 %103, ptr %105, align 8, !tbaa !22
  store i32 0, ptr %8, align 4
  br label %106

106:                                              ; preds = %102, %101
  call void @llvm.lifetime.end.p0(i64 4, ptr %11) #7
  %107 = load i32, ptr %8, align 4
  switch i32 %107, label %110 [
    i32 0, label %108
  ]

108:                                              ; preds = %106
  br label %109

109:                                              ; preds = %108, %92
  store i32 1, ptr %3, align 4
  store i32 1, ptr %8, align 4
  br label %110

110:                                              ; preds = %109, %106, %90, %77, %63, %38, %16
  call void @llvm.lifetime.end.p0(i64 8, ptr %7) #7
  call void @llvm.lifetime.end.p0(i64 8, ptr %6) #7
  %111 = load i32, ptr %3, align 4
  ret i32 %111
}