; Function Attrs: nounwind uwtable
define range(i32 0, 2) i32 @ossl_cipher_generic_set_ctx_params(ptr noundef %0, ptr noundef %1) local_unnamed_addr #1 {
  %3 = alloca i32, align 4
  %4 = alloca i32, align 4
  %5 = alloca i32, align 4
  %6 = icmp eq ptr %1, null
  br i1 %6, label %ossl_param_is_empty.exit.thread, label %ossl_param_is_empty.exit

ossl_param_is_empty.exit:                         ; preds = %2
  %7 = load ptr, ptr %1, align 8, !tbaa !3
  %.not = icmp eq ptr %7, null
  br i1 %.not, label %ossl_param_is_empty.exit.thread, label %8

8:                                                ; preds = %ossl_param_is_empty.exit
  %9 = tail call ptr @OSSL_PARAM_locate_const(ptr noundef nonnull %1, ptr noundef nonnull @.str.10) #6
  %.not35 = icmp eq ptr %9, null
  br i1 %.not35, label %19, label %10

10:                                               ; preds = %8
  call void @llvm.lifetime.start.p0(i64 4, ptr nonnull %3) #6
  %11 = call i32 @OSSL_PARAM_get_uint(ptr noundef nonnull %9, ptr noundef nonnull %3) #6
  %.not36.not = icmp eq i32 %11, 0
  br i1 %.not36.not, label %.thread, label %12

.thread:                                          ; preds = %10
  call void @ERR_new() #6
  call void @ERR_set_debug(ptr noundef nonnull @.str.1, i32 noundef 660, ptr noundef nonnull @__func__.ossl_cipher_generic_set_ctx_params) #6
  call void (i32, i32, ptr, ...) @ERR_set_error(i32 noundef 57, i32 noundef 103, ptr noundef null) #6
  call void @llvm.lifetime.end.p0(i64 4, ptr nonnull %3) #6
  br label %ossl_param_is_empty.exit.thread

12:                                               ; preds = %10
  %13 = load i32, ptr %3, align 4, !tbaa !16
  %.not37 = icmp ne i32 %13, 0
  %14 = getelementptr inbounds nuw i8, ptr %0, i64 108
  %15 = zext i1 %.not37 to i8
  %16 = load i8, ptr %14, align 4
  %17 = and i8 %16, -2
  %18 = or disjoint i8 %17, %15
  store i8 %18, ptr %14, align 4
  call void @llvm.lifetime.end.p0(i64 4, ptr nonnull %3) #6
  br label %19

19:                                               ; preds = %12, %8
  %20 = call ptr @OSSL_PARAM_locate_const(ptr noundef nonnull %1, ptr noundef nonnull @.str.15) #6
  %.not38 = icmp eq ptr %20, null
  br i1 %.not38, label %30, label %21

21:                                               ; preds = %19
  call void @llvm.lifetime.start.p0(i64 4, ptr nonnull %4) #6
  %22 = call i32 @OSSL_PARAM_get_uint(ptr noundef nonnull %20, ptr noundef nonnull %4) #6
  %.not39.not = icmp eq i32 %22, 0
  br i1 %.not39.not, label %.thread48, label %23

.thread48:                                        ; preds = %21
  call void @ERR_new() #6
  call void @ERR_set_debug(ptr noundef nonnull @.str.1, i32 noundef 670, ptr noundef nonnull @__func__.ossl_cipher_generic_set_ctx_params) #6
  call void (i32, i32, ptr, ...) @ERR_set_error(i32 noundef 57, i32 noundef 103, ptr noundef null) #6
  call void @llvm.lifetime.end.p0(i64 4, ptr nonnull %4) #6
  br label %ossl_param_is_empty.exit.thread

23:                                               ; preds = %21
  %24 = load i32, ptr %4, align 4, !tbaa !16
  %.not40.not = icmp eq i32 %24, 0
  %25 = getelementptr inbounds nuw i8, ptr %0, i64 108
  %26 = load i8, ptr %25, align 4
  %27 = select i1 %.not40.not, i8 0, i8 -128
  %28 = and i8 %26, 127
  %29 = or disjoint i8 %28, %27
  store i8 %29, ptr %25, align 4
  call void @llvm.lifetime.end.p0(i64 4, ptr nonnull %4) #6
  br label %30

30:                                               ; preds = %23, %19
  %31 = call ptr @OSSL_PARAM_locate_const(ptr noundef nonnull %1, ptr noundef nonnull @.str.16) #6
  %.not41 = icmp eq ptr %31, null
  br i1 %.not41, label %36, label %32

32:                                               ; preds = %30
  %33 = getelementptr inbounds nuw i8, ptr %0, i64 112
  %34 = call i32 @OSSL_PARAM_get_uint(ptr noundef nonnull %31, ptr noundef nonnull %33) #6
  %.not42 = icmp eq i32 %34, 0
  br i1 %.not42, label %35, label %36

35:                                               ; preds = %32
  call void @ERR_new() #6
  call void @ERR_set_debug(ptr noundef nonnull @.str.1, i32 noundef 678, ptr noundef nonnull @__func__.ossl_cipher_generic_set_ctx_params) #6
  call void (i32, i32, ptr, ...) @ERR_set_error(i32 noundef 57, i32 noundef 103, ptr noundef null) #6
  br label %ossl_param_is_empty.exit.thread

36:                                               ; preds = %32, %30
  %37 = call ptr @OSSL_PARAM_locate_const(ptr noundef nonnull %1, ptr noundef nonnull @.str.17) #6
  %.not43 = icmp eq ptr %37, null
  br i1 %.not43, label %42, label %38

38:                                               ; preds = %36
  %39 = getelementptr inbounds nuw i8, ptr %0, i64 136
  %40 = call i32 @OSSL_PARAM_get_size_t(ptr noundef nonnull %37, ptr noundef nonnull %39) #6
  %.not44 = icmp eq i32 %40, 0
  br i1 %.not44, label %41, label %42

41:                                               ; preds = %38
  call void @ERR_new() #6
  call void @ERR_set_debug(ptr noundef nonnull @.str.1, i32 noundef 685, ptr noundef nonnull @__func__.ossl_cipher_generic_set_ctx_params) #6
  call void (i32, i32, ptr, ...) @ERR_set_error(i32 noundef 57, i32 noundef 103, ptr noundef null) #6
  br label %ossl_param_is_empty.exit.thread

42:                                               ; preds = %38, %36
  %43 = call ptr @OSSL_PARAM_locate_const(ptr noundef nonnull %1, ptr noundef nonnull @.str.13) #6
  %.not45 = icmp eq ptr %43, null
  br i1 %.not45, label %ossl_param_is_empty.exit.thread, label %44

44:                                               ; preds = %42
  call void @llvm.lifetime.start.p0(i64 4, ptr nonnull %5) #6
  %45 = call i32 @OSSL_PARAM_get_uint(ptr noundef nonnull %43, ptr noundef nonnull %5) #6
  %.not46.not = icmp eq i32 %45, 0
  br i1 %.not46.not, label %.thread49, label %46

.thread49:                                        ; preds = %44
  call void @ERR_new() #6
  call void @ERR_set_debug(ptr noundef nonnull @.str.1, i32 noundef 694, ptr noundef nonnull @__func__.ossl_cipher_generic_set_ctx_params) #6
  call void (i32, i32, ptr, ...) @ERR_set_error(i32 noundef 57, i32 noundef 103, ptr noundef null) #6
  call void @llvm.lifetime.end.p0(i64 4, ptr nonnull %5) #6
  br label %ossl_param_is_empty.exit.thread

46:                                               ; preds = %44
  %47 = load i32, ptr %5, align 4, !tbaa !16
  %48 = getelementptr inbounds nuw i8, ptr %0, i64 160
  store i32 %47, ptr %48, align 8, !tbaa !17
  call void @llvm.lifetime.end.p0(i64 4, ptr nonnull %5) #6
  br label %ossl_param_is_empty.exit.thread

ossl_param_is_empty.exit.thread:                  ; preds = %2, %42, %46, %.thread49, %.thread48, %.thread, %ossl_param_is_empty.exit, %41, %35
  %.027 = phi i32 [ 0, %41 ], [ 0, %35 ], [ 1, %ossl_param_is_empty.exit ], [ 0, %.thread ], [ 0, %.thread48 ], [ 0, %.thread49 ], [ 1, %46 ], [ 1, %42 ], [ 1, %2 ]
  ret i32 %.027
}